target datalayout = "e-m:e-p270:32:32-p271:32:32-p272:64:64-i64:64-i128:128-f80:128-n8:16:32:64-S128"
target triple = "x86_64-pc-linux-gnu"

%struct.JNINativeInterface_ = type { ptr, ptr, ptr, ptr, ptr, ptr, ptr, ptr, ptr, ptr, ptr, ptr, ptr, ptr, ptr, ptr, ptr, ptr, ptr, ptr, ptr, ptr, ptr, ptr, ptr, ptr, ptr, ptr, ptr, ptr, ptr, ptr, ptr, ptr, ptr, ptr, ptr, ptr, ptr, ptr, ptr, ptr, ptr, ptr, ptr, ptr, ptr, ptr, ptr, ptr, ptr, ptr, ptr, ptr, ptr, ptr, ptr, ptr, ptr, ptr, ptr, ptr, ptr, ptr, ptr, ptr, ptr, ptr, ptr, ptr, ptr, ptr, ptr, ptr, ptr, ptr, ptr, ptr, ptr, ptr, ptr, ptr, ptr, ptr, ptr, ptr, ptr, ptr, ptr, ptr, ptr, ptr, ptr, ptr, ptr, ptr, ptr, ptr, ptr, ptr, ptr, ptr, ptr, ptr, ptr, ptr, ptr, ptr, ptr, ptr, ptr, ptr, ptr, ptr, ptr, ptr, ptr, ptr, ptr, ptr, ptr, ptr, ptr, ptr, ptr, ptr, ptr, ptr, ptr, ptr, ptr, ptr, ptr, ptr, ptr, ptr, ptr, ptr, ptr, ptr, ptr, ptr, ptr, ptr, ptr, ptr, ptr, ptr, ptr, ptr, ptr, ptr, ptr, ptr, ptr, ptr, ptr, ptr, ptr, ptr, ptr, ptr, ptr, ptr, ptr, ptr, ptr, ptr, ptr, ptr, ptr, ptr, ptr, ptr, ptr, ptr, ptr, ptr, ptr, ptr, ptr, ptr, ptr, ptr, ptr, ptr, ptr, ptr, ptr, ptr, ptr, ptr, ptr, ptr, ptr, ptr, ptr, ptr, ptr, ptr, ptr, ptr, ptr, ptr, ptr, ptr, ptr, ptr, ptr, ptr, ptr, ptr, ptr, ptr, ptr, ptr, ptr, ptr, ptr, ptr, ptr, ptr, ptr, ptr, ptr, ptr, ptr, ptr, ptr, ptr, ptr, ptr, ptr, ptr, ptr }
%struct.sockaddr_in = type { i16, i16, %struct.in_addr, [8 x i8] }
%struct.in_addr = type { i32 }

@.str.3 = private unnamed_addr constant [30 x i8] c"java/net/UnknownHostException\00", align 1

; Function Attrs: nounwind uwtable
define ptr @Java_java_net_Inet4AddressImpl_getHostByAddr(ptr noundef %0, ptr noundef %1, ptr noundef %2) #0 {
  %4 = alloca ptr, align 8
  %5 = alloca ptr, align 8
  %6 = alloca ptr, align 8
  %7 = alloca ptr, align 8
  %8 = alloca [1026 x i8], align 16
  %9 = alloca [4 x i8], align 1
  %10 = alloca i32, align 4
  %11 = alloca %struct.sockaddr_in, align 4
  store ptr %0, ptr %4, align 8
  store ptr %1, ptr %5, align 8
  store ptr %2, ptr %6, align 8
  store ptr null, ptr %7, align 8
  call void @llvm.memset.p0.i64(ptr align 4 %11, i8 0, i64 16, i1 false)
  %12 = load ptr, ptr %4, align 8
  %13 = load ptr, ptr %12, align 8
  %14 = getelementptr inbounds %struct.JNINativeInterface_, ptr %13, i32 0, i32 200
  %15 = load ptr, ptr %14, align 8
  %16 = load ptr, ptr %4, align 8
  %17 = load ptr, ptr %6, align 8
  %18 = getelementptr inbounds [4 x i8], ptr %9, i64 0, i64 0
  call void %15(ptr noundef %16, ptr noundef %17, i32 noundef 0, i32 noundef 4, ptr noundef %18)
  %19 = getelementptr inbounds [4 x i8], ptr %9, i64 0, i64 0
  %20 = load i8, ptr %19, align 1
  %21 = sext i8 %20 to i32
  %22 = shl i32 %21, 24
  %23 = and i32 %22, -16777216
  store i32 %23, ptr %10, align 4
  %24 = getelementptr inbounds [4 x i8], ptr %9, i64 0, i64 1
  %25 = load i8, ptr %24, align 1
  %26 = sext i8 %25 to i32
  %27 = shl i32 %26, 16
  %28 = and i32 %27, 16711680
  %29 = load i32, ptr %10, align 4
  %30 = or i32 %29, %28
  store i32 %30, ptr %10, align 4
  %31 = getelementptr inbounds [4 x i8], ptr %9, i64 0, i64 2
  %32 = load i8, ptr %31, align 1
  %33 = sext i8 %32 to i32
  %34 = shl i32 %33, 8
  %35 = and i32 %34, 65280
  %36 = load i32, ptr %10, align 4
  %37 = or i32 %36, %35
  store i32 %37, ptr %10, align 4
  %38 = getelementptr inbounds [4 x i8], ptr %9, i64 0, i64 3
  %39 = load i8, ptr %38, align 1
  %40 = sext i8 %39 to i32
  %41 = and i32 %40, 255
  %42 = load i32, ptr %10, align 4
  %43 = or i32 %42, %41
  store i32 %43, ptr %10, align 4
  %44 = load i32, ptr %10, align 4
  %45 = call i32 @htonl(i32 noundef %44) #9
  %46 = getelementptr inbounds %struct.sockaddr_in, ptr %11, i32 0, i32 2
  %47 = getelementptr inbounds %struct.in_addr, ptr %46, i32 0, i32 0
  store i32 %45, ptr %47, align 4
  %48 = getelementptr inbounds %struct.sockaddr_in, ptr %11, i32 0, i32 0
  store i16 2, ptr %48, align 4
  %49 = getelementptr inbounds [1026 x i8], ptr %8, i64 0, i64 0
  %50 = call i32 @getnameinfo(ptr noundef %11, i32 noundef 16, ptr noundef %49, i32 noundef 1026, ptr noundef null, i32 noundef 0, i32 noundef 8)
  %51 = icmp ne i32 %50, 0
  br i1 %51, label %52, label %54

52:                                               ; preds = %3
  %53 = load ptr, ptr %4, align 8
  call void @JNU_ThrowByName(ptr noundef %53, ptr noundef @.str.3, ptr noundef null)
  br label %67

54:                                               ; preds = %3
  %55 = load ptr, ptr %4, align 8
  %56 = load ptr, ptr %55, align 8
  %57 = getelementptr inbounds %struct.JNINativeInterface_, ptr %56, i32 0, i32 167
  %58 = load ptr, ptr %57, align 8
  %59 = load ptr, ptr %4, align 8
  %60 = getelementptr inbounds [1026 x i8], ptr %8, i64 0, i64 0
  %61 = call ptr %58(ptr noundef %59, ptr noundef %60)
  store ptr %61, ptr %7, align 8
  %62 = load ptr, ptr %7, align 8
  %63 = icmp eq ptr %62, null
  br i1 %63, label %64, label %66

64:                                               ; preds = %54
  %65 = load ptr, ptr %4, align 8
  call void @JNU_ThrowByName(ptr noundef %65, ptr noundef @.str.3, ptr noundef null)
  br label %66

66:                                               ; preds = %64, %54
  br label %67

67:                                               ; preds = %66, %52
  %68 = load ptr, ptr %7, align 8
  ret ptr %68
}