; Function Attrs: nounwind uwtable
define ptr @Java_java_net_Inet4AddressImpl_getHostByAddr(ptr noundef %0, ptr nocapture noundef readnone %1, ptr noundef %2) local_unnamed_addr #0 {
  %4 = alloca [1026 x i8], align 16
  %5 = alloca [4 x i8], align 1
  %6 = alloca %struct.sockaddr_in, align 4
  call void @llvm.memset.p0.i64(ptr noundef nonnull align 4 dereferenceable(16) %6, i8 0, i64 16, i1 false)
  %7 = load ptr, ptr %0, align 8
  %8 = getelementptr inbounds i8, ptr %7, i64 1600
  %9 = load ptr, ptr %8, align 8
  call void %9(ptr noundef nonnull %0, ptr noundef %2, i32 noundef 0, i32 noundef 4, ptr noundef nonnull %5) #11
  %10 = load i8, ptr %5, align 1
  %11 = sext i8 %10 to i32
  %12 = shl nsw i32 %11, 24
  %13 = getelementptr inbounds i8, ptr %5, i64 1
  %14 = load i8, ptr %13, align 1
  %15 = sext i8 %14 to i32
  %16 = shl nsw i32 %15, 16
  %17 = and i32 %16, 16711680
  %18 = or disjoint i32 %17, %12
  %19 = getelementptr inbounds i8, ptr %5, i64 2
  %20 = load i8, ptr %19, align 1
  %21 = sext i8 %20 to i32
  %22 = shl nsw i32 %21, 8
  %23 = and i32 %22, 65280
  %24 = or disjoint i32 %18, %23
  %25 = getelementptr inbounds i8, ptr %5, i64 3
  %26 = load i8, ptr %25, align 1
  %27 = zext i8 %26 to i32
  %28 = or disjoint i32 %24, %27
  %29 = call i32 @htonl(i32 noundef %28) #13
  %30 = getelementptr inbounds i8, ptr %6, i64 4
  store i32 %29, ptr %30, align 4
  store i16 2, ptr %6, align 4
  %31 = call i32 @getnameinfo(ptr noundef nonnull %6, i32 noundef 16, ptr noundef nonnull %4, i32 noundef 1026, ptr noundef null, i32 noundef 0, i32 noundef 8) #11
  %.not = icmp eq i32 %31, 0
  br i1 %.not, label %32, label %.sink.split

32:                                               ; preds = %3
  %33 = load ptr, ptr %0, align 8
  %34 = getelementptr inbounds i8, ptr %33, i64 1336
  %35 = load ptr, ptr %34, align 8
  %36 = call ptr %35(ptr noundef nonnull %0, ptr noundef nonnull %4) #11
  %37 = icmp eq ptr %36, null
  br i1 %37, label %.sink.split, label %38

.sink.split:                                      ; preds = %32, %3
  call void @JNU_ThrowByName(ptr noundef nonnull %0, ptr noundef nonnull @.str.3, ptr noundef null) #11
  br label %38

38:                                               ; preds = %.sink.split, %32
  %.0 = phi ptr [ %36, %32 ], [ null, %.sink.split ]
  ret ptr %.0
}